target datalayout = "e-m:e-p270:32:32-p271:32:32-p272:64:64-i64:64-i128:128-f80:128-n8:16:32:64-S128"
target triple = "x86_64-pc-linux-gnu"

%struct.BEValue = type { i8, i32, ptr, ptr, ptr }
%struct.GenContext_ = type { i8, ptr, ptr, ptr, ptr, ptr, ptr, ptr, ptr, ptr, ptr, ptr, ptr, ptr, ptr, ptr, ptr, ptr, ptr, ptr, ptr, ptr, ptr, ptr, ptr, ptr, ptr, ptr, ptr, ptr, ptr, ptr, ptr, %struct.anon.85, i32, i32, %struct.DebugContext, ptr, ptr, ptr, %struct.BEValue, i8, %union.SourceSpan, ptr, ptr, ptr, ptr }
%struct.anon.85 = type { ptr, ptr, ptr }
%struct.DebugContext = type { i16, ptr, ptr, %struct.DebugFile_, ptr, ptr, ptr, ptr }
%struct.DebugFile_ = type { i16, ptr }
%union.SourceSpan = type { i64 }
%struct.Type_ = type { i32, ptr, ptr, ptr, %union.anon.97, ptr, ptr, %union.anon.99 }
%union.anon.97 = type { ptr }
%union.anon.99 = type { %struct.TypeFunction }
%struct.TypeFunction = type { ptr, ptr, ptr }

@.str.3 = private unnamed_addr constant [1 x i8] zeroinitializer, align 1
@type_usz = external global ptr, align 8
@type_typeid = external global ptr, align 8
@type_anyptr = external global ptr, align 8

; Function Attrs: nounwind uwtable
define dso_local void @llvm_emit_typeid(ptr noundef %0, ptr noundef %1, ptr noundef %2) #0 {
  %4 = alloca ptr, align 8
  %5 = alloca ptr, align 8
  %6 = alloca ptr, align 8
  store ptr %0, ptr %4, align 8
  store ptr %1, ptr %5, align 8
  store ptr %2, ptr %6, align 8
  %7 = load ptr, ptr %6, align 8
  %8 = getelementptr inbounds %struct.Type_, ptr %7, i32 0, i32 1
  %9 = load ptr, ptr %8, align 8
  store ptr %9, ptr %6, align 8
  %10 = load ptr, ptr %5, align 8
  %11 = load ptr, ptr %4, align 8
  %12 = load ptr, ptr %6, align 8
  %13 = call ptr @llvm_get_typeid(ptr noundef %11, ptr noundef %12)
  %14 = load ptr, ptr @type_typeid, align 8
  call void @llvm_value_set(ptr noundef %10, ptr noundef %13, ptr noundef %14)
  ret void
}

; Function Attrs: nounwind uwtable
define dso_local void @llvm_emit_any_from_value(ptr noundef %0, ptr noundef %1, ptr noundef %2) #0 {
  %4 = alloca ptr, align 8
  %5 = alloca i32, align 4
  %6 = alloca ptr, align 8
  %7 = alloca i32, align 4
  %8 = alloca ptr, align 8
  %9 = alloca ptr, align 8
  %10 = alloca i64, align 8
  %11 = alloca ptr, align 8
  %12 = alloca ptr, align 8
  %13 = alloca i64, align 8
  %14 = alloca ptr, align 8
  %15 = alloca ptr, align 8
  %16 = alloca ptr, align 8
  %17 = alloca ptr, align 8
  %18 = alloca i32, align 4
  %19 = alloca ptr, align 8
  %20 = alloca ptr, align 8
  %21 = alloca ptr, align 8
  %22 = alloca ptr, align 8
  %23 = alloca ptr, align 8
  %24 = alloca i32, align 4
  %25 = alloca ptr, align 8
  %26 = alloca ptr, align 8
  %27 = alloca ptr, align 8
  %28 = alloca ptr, align 8
  %29 = alloca ptr, align 8
  %30 = alloca ptr, align 8
  %31 = alloca %struct.BEValue, align 8
  %32 = alloca ptr, align 8
  store ptr %0, ptr %28, align 8
  store ptr %1, ptr %29, align 8
  store ptr %2, ptr %30, align 8
  %33 = load ptr, ptr %28, align 8
  %34 = load ptr, ptr %29, align 8
  call void @llvm_value_addr(ptr noundef %33, ptr noundef %34)
  %35 = load ptr, ptr %28, align 8
  %36 = load ptr, ptr %30, align 8
  call void @llvm_emit_typeid(ptr noundef %35, ptr noundef %31, ptr noundef %36)
  %37 = load ptr, ptr %28, align 8
  call void @llvm_value_rvalue(ptr noundef %37, ptr noundef %31)
  %38 = load ptr, ptr %28, align 8
  %39 = load ptr, ptr @type_anyptr, align 8
  store ptr %38, ptr %26, align 8
  store ptr %39, ptr %27, align 8
  %40 = load ptr, ptr %26, align 8
  %41 = load ptr, ptr %27, align 8
  %42 = call ptr @llvm_get_type(ptr noundef %40, ptr noundef %41) #8
  %43 = call ptr @LLVMGetUndef(ptr noundef %42) #8
  store ptr %43, ptr %32, align 8
  %44 = load ptr, ptr %28, align 8
  %45 = load ptr, ptr %32, align 8
  %46 = load ptr, ptr %29, align 8
  %47 = getelementptr inbounds %struct.BEValue, ptr %46, i32 0, i32 3
  %48 = load ptr, ptr %47, align 8
  store ptr %44, ptr %15, align 8
  store ptr %45, ptr %16, align 8
  store ptr %48, ptr %17, align 8
  store i32 0, ptr %18, align 4
  %49 = load ptr, ptr %16, align 8
  %50 = call ptr @LLVMTypeOf(ptr noundef %49) #8
  %51 = call i32 @LLVMGetTypeKind(ptr noundef %50) #8
  %52 = icmp eq i32 %51, 13
  br i1 %52, label %53, label %91

53:                                               ; preds = %3
  %54 = load ptr, ptr %15, align 8
  %55 = load ptr, ptr @type_usz, align 8
  %56 = load i32, ptr %18, align 4
  %57 = zext i32 %56 to i64
  store ptr %54, ptr %11, align 8
  store ptr %55, ptr %12, align 8
  store i64 %57, ptr %13, align 8
  %58 = load ptr, ptr %12, align 8
  %59 = call ptr @type_lowering(ptr noundef %58)
  store ptr %59, ptr %12, align 8
  %60 = load ptr, ptr %11, align 8
  %61 = load ptr, ptr %12, align 8
  %62 = call ptr @llvm_get_type(ptr noundef %60, ptr noundef %61) #8
  %63 = load i64, ptr %13, align 8
  %64 = load ptr, ptr %12, align 8
  store ptr %64, ptr %4, align 8
  %65 = load ptr, ptr %4, align 8
  %66 = load i32, ptr %65, align 8
  store i32 %66, ptr %5, align 4
  %67 = load i32, ptr %5, align 4
  %68 = icmp eq i32 %67, 31
  br i1 %68, label %69, label %74

69:                                               ; preds = %53
  %70 = load ptr, ptr %4, align 8
  %71 = getelementptr inbounds %struct.Type_, ptr %70, i32 0, i32 1
  %72 = load ptr, ptr %71, align 8
  %73 = load i32, ptr %72, align 8
  store i32 %73, ptr %5, align 4
  br label %74

74:                                               ; preds = %69, %53
  %75 = load i32, ptr %5, align 4
  %76 = icmp uge i32 %75, 3
  br i1 %76, label %77, label %80

77:                                               ; preds = %74
  %78 = load i32, ptr %5, align 4
  %79 = icmp ule i32 %78, 7
  br label %80

80:                                               ; preds = %77, %74
  %81 = phi i1 [ false, %74 ], [ %79, %77 ]
  %82 = zext i1 %81 to i32
  %83 = call ptr @LLVMConstInt(ptr noundef %62, i64 noundef %63, i32 noundef %82) #8
  store ptr %83, ptr %19, align 8
  %84 = load ptr, ptr %15, align 8
  %85 = getelementptr inbounds %struct.GenContext_, ptr %84, i32 0, i32 8
  %86 = load ptr, ptr %85, align 8
  %87 = load ptr, ptr %16, align 8
  %88 = load ptr, ptr %17, align 8
  %89 = load ptr, ptr %19, align 8
  %90 = call ptr @LLVMBuildInsertElement(ptr noundef %86, ptr noundef %87, ptr noundef %88, ptr noundef %89, ptr noundef @.str.3) #8
  store ptr %90, ptr %14, align 8
  br label %99

91:                                               ; preds = %3
  %92 = load ptr, ptr %15, align 8
  %93 = getelementptr inbounds %struct.GenContext_, ptr %92, i32 0, i32 8
  %94 = load ptr, ptr %93, align 8
  %95 = load ptr, ptr %16, align 8
  %96 = load ptr, ptr %17, align 8
  %97 = load i32, ptr %18, align 4
  %98 = call ptr @LLVMBuildInsertValue(ptr noundef %94, ptr noundef %95, ptr noundef %96, i32 noundef %97, ptr noundef @.str.3) #8
  store ptr %98, ptr %14, align 8
  br label %99

99:                                               ; preds = %91, %80
  %100 = load ptr, ptr %14, align 8
  store ptr %100, ptr %32, align 8
  %101 = load ptr, ptr %28, align 8
  %102 = load ptr, ptr %32, align 8
  %103 = getelementptr inbounds %struct.BEValue, ptr %31, i32 0, i32 3
  %104 = load ptr, ptr %103, align 8
  store ptr %101, ptr %21, align 8
  store ptr %102, ptr %22, align 8
  store ptr %104, ptr %23, align 8
  store i32 1, ptr %24, align 4
  %105 = load ptr, ptr %22, align 8
  %106 = call ptr @LLVMTypeOf(ptr noundef %105) #8
  %107 = call i32 @LLVMGetTypeKind(ptr noundef %106) #8
  %108 = icmp eq i32 %107, 13
  br i1 %108, label %109, label %147

109:                                              ; preds = %99
  %110 = load ptr, ptr %21, align 8
  %111 = load ptr, ptr @type_usz, align 8
  %112 = load i32, ptr %24, align 4
  %113 = zext i32 %112 to i64
  store ptr %110, ptr %8, align 8
  store ptr %111, ptr %9, align 8
  store i64 %113, ptr %10, align 8
  %114 = load ptr, ptr %9, align 8
  %115 = call ptr @type_lowering(ptr noundef %114)
  store ptr %115, ptr %9, align 8
  %116 = load ptr, ptr %8, align 8
  %117 = load ptr, ptr %9, align 8
  %118 = call ptr @llvm_get_type(ptr noundef %116, ptr noundef %117) #8
  %119 = load i64, ptr %10, align 8
  %120 = load ptr, ptr %9, align 8
  store ptr %120, ptr %6, align 8
  %121 = load ptr, ptr %6, align 8
  %122 = load i32, ptr %121, align 8
  store i32 %122, ptr %7, align 4
  %123 = load i32, ptr %7, align 4
  %124 = icmp eq i32 %123, 31
  br i1 %124, label %125, label %130

125:                                              ; preds = %109
  %126 = load ptr, ptr %6, align 8
  %127 = getelementptr inbounds %struct.Type_, ptr %126, i32 0, i32 1
  %128 = load ptr, ptr %127, align 8
  %129 = load i32, ptr %128, align 8
  store i32 %129, ptr %7, align 4
  br label %130

130:                                              ; preds = %125, %109
  %131 = load i32, ptr %7, align 4
  %132 = icmp uge i32 %131, 3
  br i1 %132, label %133, label %136

133:                                              ; preds = %130
  %134 = load i32, ptr %7, align 4
  %135 = icmp ule i32 %134, 7
  br label %136

136:                                              ; preds = %133, %130
  %137 = phi i1 [ false, %130 ], [ %135, %133 ]
  %138 = zext i1 %137 to i32
  %139 = call ptr @LLVMConstInt(ptr noundef %118, i64 noundef %119, i32 noundef %138) #8
  store ptr %139, ptr %25, align 8
  %140 = load ptr, ptr %21, align 8
  %141 = getelementptr inbounds %struct.GenContext_, ptr %140, i32 0, i32 8
  %142 = load ptr, ptr %141, align 8
  %143 = load ptr, ptr %22, align 8
  %144 = load ptr, ptr %23, align 8
  %145 = load ptr, ptr %25, align 8
  %146 = call ptr @LLVMBuildInsertElement(ptr noundef %142, ptr noundef %143, ptr noundef %144, ptr noundef %145, ptr noundef @.str.3) #8
  store ptr %146, ptr %20, align 8
  br label %155

147:                                              ; preds = %99
  %148 = load ptr, ptr %21, align 8
  %149 = getelementptr inbounds %struct.GenContext_, ptr %148, i32 0, i32 8
  %150 = load ptr, ptr %149, align 8
  %151 = load ptr, ptr %22, align 8
  %152 = load ptr, ptr %23, align 8
  %153 = load i32, ptr %24, align 4
  %154 = call ptr @LLVMBuildInsertValue(ptr noundef %150, ptr noundef %151, ptr noundef %152, i32 noundef %153, ptr noundef @.str.3) #8
  store ptr %154, ptr %20, align 8
  br label %155

155:                                              ; preds = %147, %136
  %156 = load ptr, ptr %20, align 8
  store ptr %156, ptr %32, align 8
  %157 = load ptr, ptr %29, align 8
  %158 = load ptr, ptr %32, align 8
  %159 = load ptr, ptr @type_anyptr, align 8
  call void @llvm_value_set(ptr noundef %157, ptr noundef %158, ptr noundef %159)
  ret void
}