; Function Attrs: nounwind uwtable
define dso_local void @llvm_emit_any_from_value(ptr noundef %0, ptr noundef %1, ptr nocapture noundef readonly %2) local_unnamed_addr #0 {
  %4 = alloca %struct.BEValue, align 8
  tail call void @llvm_value_addr(ptr noundef %0, ptr noundef %1) #10
  %5 = getelementptr inbounds i8, ptr %2, i64 8
  %6 = load ptr, ptr %5, align 8
  %7 = tail call ptr @llvm_get_typeid(ptr noundef %0, ptr noundef %6) #10
  %8 = load ptr, ptr @type_typeid, align 8
  call void @llvm_value_set(ptr noundef nonnull %4, ptr noundef %7, ptr noundef %8) #10
  call void @llvm_value_rvalue(ptr noundef %0, ptr noundef nonnull %4) #10
  %9 = load ptr, ptr @type_anyptr, align 8
  %10 = call ptr @llvm_get_type(ptr noundef %0, ptr noundef %9) #10
  %11 = call ptr @LLVMGetUndef(ptr noundef %10) #10
  %12 = getelementptr inbounds i8, ptr %1, i64 16
  %13 = load ptr, ptr %12, align 8
  %14 = call ptr @LLVMTypeOf(ptr noundef %11) #10
  %15 = call i32 @LLVMGetTypeKind(ptr noundef %14) #10
  %16 = icmp eq i32 %15, 13
  br i1 %16, label %17, label %35

17:                                               ; preds = %3
  %18 = load ptr, ptr @type_usz, align 8
  %19 = call fastcc ptr @type_lowering(ptr noundef %18)
  %20 = call ptr @llvm_get_type(ptr noundef %0, ptr noundef %19) #10
  %21 = load i32, ptr %19, align 8
  %22 = icmp eq i32 %21, 31
  br i1 %22, label %23, label %27

23:                                               ; preds = %17
  %24 = getelementptr inbounds i8, ptr %19, i64 8
  %25 = load ptr, ptr %24, align 8
  %26 = load i32, ptr %25, align 8
  br label %27

27:                                               ; preds = %23, %17
  %.0 = phi i32 [ %26, %23 ], [ %21, %17 ]
  %28 = add i32 %.0, -3
  %29 = icmp ult i32 %28, 5
  %30 = zext i1 %29 to i32
  %31 = call ptr @LLVMConstInt(ptr noundef %20, i64 noundef 0, i32 noundef %30) #10
  %32 = getelementptr inbounds i8, ptr %0, i64 64
  %33 = load ptr, ptr %32, align 8
  %34 = call ptr @LLVMBuildInsertElement(ptr noundef %33, ptr noundef %11, ptr noundef %13, ptr noundef %31, ptr noundef nonnull @.str.3) #10
  br label %39

35:                                               ; preds = %3
  %36 = getelementptr inbounds i8, ptr %0, i64 64
  %37 = load ptr, ptr %36, align 8
  %38 = call ptr @LLVMBuildInsertValue(ptr noundef %37, ptr noundef %11, ptr noundef %13, i32 noundef 0, ptr noundef nonnull @.str.3) #10
  br label %39

39:                                               ; preds = %35, %27
  %.059 = phi ptr [ %34, %27 ], [ %38, %35 ]
  %40 = getelementptr inbounds i8, ptr %4, i64 16
  %41 = load ptr, ptr %40, align 8
  %42 = call ptr @LLVMTypeOf(ptr noundef %.059) #10
  %43 = call i32 @LLVMGetTypeKind(ptr noundef %42) #10
  %44 = icmp eq i32 %43, 13
  br i1 %44, label %45, label %63

45:                                               ; preds = %39
  %46 = load ptr, ptr @type_usz, align 8
  %47 = call fastcc ptr @type_lowering(ptr noundef %46)
  %48 = call ptr @llvm_get_type(ptr noundef nonnull %0, ptr noundef %47) #10
  %49 = load i32, ptr %47, align 8
  %50 = icmp eq i32 %49, 31
  br i1 %50, label %51, label %55

51:                                               ; preds = %45
  %52 = getelementptr inbounds i8, ptr %47, i64 8
  %53 = load ptr, ptr %52, align 8
  %54 = load i32, ptr %53, align 8
  br label %55

55:                                               ; preds = %51, %45
  %.058 = phi i32 [ %54, %51 ], [ %49, %45 ]
  %56 = add i32 %.058, -3
  %57 = icmp ult i32 %56, 5
  %58 = zext i1 %57 to i32
  %59 = call ptr @LLVMConstInt(ptr noundef %48, i64 noundef 1, i32 noundef %58) #10
  %60 = getelementptr inbounds i8, ptr %0, i64 64
  %61 = load ptr, ptr %60, align 8
  %62 = call ptr @LLVMBuildInsertElement(ptr noundef %61, ptr noundef %.059, ptr noundef %41, ptr noundef %59, ptr noundef nonnull @.str.3) #10
  br label %67

63:                                               ; preds = %39
  %64 = getelementptr inbounds i8, ptr %0, i64 64
  %65 = load ptr, ptr %64, align 8
  %66 = call ptr @LLVMBuildInsertValue(ptr noundef %65, ptr noundef %.059, ptr noundef %41, i32 noundef 1, ptr noundef nonnull @.str.3) #10
  br label %67

67:                                               ; preds = %63, %55
  %.060 = phi ptr [ %62, %55 ], [ %66, %63 ]
  %68 = load ptr, ptr @type_anyptr, align 8
  call void @llvm_value_set(ptr noundef nonnull %1, ptr noundef %.060, ptr noundef %68) #10
  ret void
}